target datalayout = "e-m:e-p270:32:32-p271:32:32-p272:64:64-i64:64-i128:128-f80:128-n8:16:32:64-S128"
target triple = "x86_64-pc-linux-gnu"

%struct._PySeqLock = type { i32 }

; Function Attrs: nounwind uwtable
define dso_local i32 @_PySeqLock_AfterFork(ptr noundef %0) #0 {
  %2 = alloca i32, align 4
  %3 = alloca ptr, align 8
  store ptr %0, ptr %3, align 8, !tbaa !25
  %4 = load ptr, ptr %3, align 8, !tbaa !25
  %5 = getelementptr inbounds nuw %struct._PySeqLock, ptr %4, i32 0, i32 0
  %6 = load i32, ptr %5, align 4, !tbaa !45
  %7 = and i32 %6, 1
  %8 = icmp ne i32 %7, 0
  br i1 %8, label %9, label %12

9:                                                ; preds = %1
  %10 = load ptr, ptr %3, align 8, !tbaa !25
  %11 = getelementptr inbounds nuw %struct._PySeqLock, ptr %10, i32 0, i32 0
  store i32 0, ptr %11, align 4, !tbaa !45
  store i32 1, ptr %2, align 4
  br label %13

12:                                               ; preds = %1
  store i32 0, ptr %2, align 4
  br label %13

13:                                               ; preds = %12, %9
  %14 = load i32, ptr %2, align 4
  ret i32 %14
}