; Function Attrs: mustprogress nofree norecurse nosync nounwind willreturn memory(argmem: readwrite) uwtable
define dso_local range(i32 0, 2) i32 @_PySeqLock_AfterFork(ptr noundef captures(none) %0) local_unnamed_addr #5 {
  %2 = load i32, ptr %0, align 4, !tbaa !25
  %3 = and i32 %2, 1
  %.not = icmp eq i32 %3, 0
  br i1 %.not, label %5, label %4

4:                                                ; preds = %1
  store i32 0, ptr %0, align 4, !tbaa !25
  br label %5

5:                                                ; preds = %1, %4
  %.0 = phi i32 [ 1, %4 ], [ 0, %1 ]
  ret i32 %.0
}